target datalayout = "e-m:e-p270:32:32-p271:32:32-p272:64:64-i64:64-i128:128-f80:128-n8:16:32:64-S128"
target triple = "x86_64-pc-linux-gnu"

%union.pthread_mutex_t = type { %struct.__pthread_mutex_s }
%struct.__pthread_mutex_s = type { i32, i32, i32, i32, i32, i16, i16, %struct.__pthread_internal_list }
%struct.__pthread_internal_list = type { ptr, ptr }
%struct.slurmd_config = type { ptr, ptr, i32, [4096 x i8], ptr, ptr, ptr, ptr, i16, i16, i16, i16, ptr, i16, i64, i16, i16, i16, i16, i16, i16, i16, i16, i16, i16, i16, i64, i64, i32, i32, i16, ptr, ptr, ptr, i32, ptr, ptr, ptr, ptr, ptr, ptr, ptr, ptr, ptr, ptr, i32, ptr, ptr, i16, i32, i32, %struct.log_options_t, i32, i16, i64, i8, i8, i8, i8, i8, %union.pthread_mutex_t, i16, ptr, %union.pthread_cond_t, ptr, %union.pthread_cond_t, i8, i8, ptr, ptr }
%struct.log_options_t = type { i32, i32, i32, i8, i8, i8, i32 }
%union.pthread_cond_t = type { %struct.__pthread_cond_s }
%struct.__pthread_cond_s = type { %union.__atomic_wide_counter, %union.__atomic_wide_counter, [2 x i32], [2 x i32], i32, i32, [2 x i32] }
%union.__atomic_wide_counter = type { i64 }
%struct.buf_t = type { i32, ptr, i32, i32, i8, i8 }
%struct.slurm_update_node_msg = type { ptr, i32, ptr, ptr, ptr, ptr, ptr, ptr, ptr, ptr, ptr, ptr, i32, ptr, i32, i32, i32 }

@save_cred_state.state_mutex = internal global %union.pthread_mutex_t zeroinitializer, align 8
@conf = external global ptr, align 8
@.str = private unnamed_addr constant [12 x i8] c"/cred_state\00", align 1
@.str.1 = private unnamed_addr constant [16 x i8] c"/cred_state.new\00", align 1
@.str.2 = private unnamed_addr constant [29 x i8] c"%s: pthread_mutex_lock(): %m\00", align 1
@__func__.save_cred_state = private unnamed_addr constant [16 x i8] c"save_cred_state\00", align 1
@.str.3 = private unnamed_addr constant [14 x i8] c"creat(%s): %m\00", align 1
@.str.4 = private unnamed_addr constant [23 x i8] c"SlurmdSpoolDir is full\00", align 1
@.str.5 = private unnamed_addr constant [18 x i8] c"write %s error %m\00", align 1
@.str.6 = private unnamed_addr constant [39 x i8] c"unable to create link for %s -> %s: %m\00", align 1
@.str.7 = private unnamed_addr constant [31 x i8] c"%s: pthread_mutex_unlock(): %m\00", align 1
@cred_job_list = internal global ptr null, align 8
@cred_state_list = internal global ptr null, align 8
@cred_cache_mutex = internal global %union.pthread_mutex_t zeroinitializer, align 8
@__func__._cred_context_pack = private unnamed_addr constant [19 x i8] c"_cred_context_pack\00", align 1

; Function Attrs: nounwind uwtable
define internal void @_cred_context_pack(ptr noundef %0) #0 {
  %2 = alloca ptr, align 8
  %3 = alloca i16, align 2
  %4 = alloca i32, align 4
  %5 = alloca i32, align 4
  store ptr %0, ptr %2, align 8
  call void @llvm.lifetime.start.p0(i64 2, ptr %3) #7
  store i16 11008, ptr %3, align 2
  %6 = load i16, ptr %3, align 2
  %7 = load ptr, ptr %2, align 8
  call void @pack16(i16 noundef zeroext %6, ptr noundef %7)
  br label %8

8:                                                ; preds = %1
  call void @llvm.lifetime.start.p0(i64 4, ptr %4) #7
  %9 = call i32 @pthread_mutex_lock(ptr noundef @cred_cache_mutex) #7
  store i32 %9, ptr %4, align 4
  %10 = load i32, ptr %4, align 4
  %11 = icmp ne i32 %10, 0
  br i1 %11, label %12, label %15

12:                                               ; preds = %8
  %13 = load i32, ptr %4, align 4
  %14 = call ptr @__errno_location() #8
  store i32 %13, ptr %14, align 4
  call void (ptr, ...) @fatal_abort(ptr noundef @.str.2, ptr noundef @__func__._cred_context_pack) #9
  unreachable

15:                                               ; preds = %8
  call void @llvm.lifetime.end.p0(i64 4, ptr %4) #7
  br label %16

16:                                               ; preds = %15
  br label %17

17:                                               ; preds = %16
  %18 = load ptr, ptr @cred_job_list, align 8
  %19 = load ptr, ptr %2, align 8
  %20 = load i16, ptr %3, align 2
  %21 = call i32 @slurm_pack_list(ptr noundef %18, ptr noundef @_job_state_pack, ptr noundef %19, i16 noundef zeroext %20)
  %22 = load ptr, ptr @cred_state_list, align 8
  %23 = load ptr, ptr %2, align 8
  %24 = load i16, ptr %3, align 2
  %25 = call i32 @slurm_pack_list(ptr noundef %22, ptr noundef @_cred_state_pack, ptr noundef %23, i16 noundef zeroext %24)
  br label %26

26:                                               ; preds = %17
  call void @llvm.lifetime.start.p0(i64 4, ptr %5) #7
  %27 = call i32 @pthread_mutex_unlock(ptr noundef @cred_cache_mutex) #7
  store i32 %27, ptr %5, align 4
  %28 = load i32, ptr %5, align 4
  %29 = icmp ne i32 %28, 0
  br i1 %29, label %30, label %33

30:                                               ; preds = %26
  %31 = load i32, ptr %5, align 4
  %32 = call ptr @__errno_location() #8
  store i32 %31, ptr %32, align 4
  call void (ptr, ...) @fatal_abort(ptr noundef @.str.7, ptr noundef @__func__._cred_context_pack) #9
  unreachable

33:                                               ; preds = %26
  call void @llvm.lifetime.end.p0(i64 4, ptr %5) #7
  br label %34

34:                                               ; preds = %33
  br label %35

35:                                               ; preds = %34
  call void @llvm.lifetime.end.p0(i64 2, ptr %3) #7
  ret void
}

; Function Attrs: nounwind uwtable
define internal void @_drain_node(ptr noundef %0) #0 {
  %2 = alloca ptr, align 8
  %3 = alloca %struct.slurm_update_node_msg, align 8
  store ptr %0, ptr %2, align 8
  call void @llvm.lifetime.start.p0(i64 128, ptr %3) #7
  call void @slurm_init_update_node_msg(ptr noundef %3)
  %4 = load ptr, ptr @conf, align 8
  %5 = getelementptr inbounds nuw %struct.slurmd_config, ptr %4, i32 0, i32 35
  %6 = load ptr, ptr %5, align 8
  %7 = getelementptr inbounds nuw %struct.slurm_update_node_msg, ptr %3, i32 0, i32 11
  store ptr %6, ptr %7, align 8
  %8 = getelementptr inbounds nuw %struct.slurm_update_node_msg, ptr %3, i32 0, i32 12
  store i32 512, ptr %8, align 8
  %9 = load ptr, ptr %2, align 8
  %10 = getelementptr inbounds nuw %struct.slurm_update_node_msg, ptr %3, i32 0, i32 13
  store ptr %9, ptr %10, align 8
  %11 = call i32 @slurm_update_node(ptr noundef %3)
  call void @llvm.lifetime.end.p0(i64 128, ptr %3) #7
  ret void
}

; Function Attrs: nounwind uwtable
define dso_local void @save_cred_state() #0 {
  %1 = alloca ptr, align 8
  %2 = alloca ptr, align 8
  %3 = alloca i32, align 4
  %4 = alloca i32, align 4
  %5 = alloca ptr, align 8
  %6 = alloca i32, align 4
  %7 = alloca i32, align 4
  call void @llvm.lifetime.start.p0(i64 8, ptr %1) #7
  call void @llvm.lifetime.start.p0(i64 8, ptr %2) #7
  call void @llvm.lifetime.start.p0(i64 4, ptr %3) #7
  store i32 -1, ptr %3, align 4
  call void @llvm.lifetime.start.p0(i64 4, ptr %4) #7
  call void @llvm.lifetime.start.p0(i64 8, ptr %5) #7
  store ptr null, ptr %5, align 8
  %8 = load ptr, ptr @conf, align 8
  %9 = getelementptr inbounds nuw %struct.slurmd_config, ptr %8, i32 0, i32 46
  %10 = load ptr, ptr %9, align 8
  %11 = call ptr @xstrdup(ptr noundef %10)
  store ptr %11, ptr %2, align 8
  call void @_xstrcat(ptr noundef %2, ptr noundef @.str)
  %12 = load ptr, ptr @conf, align 8
  %13 = getelementptr inbounds nuw %struct.slurmd_config, ptr %12, i32 0, i32 46
  %14 = load ptr, ptr %13, align 8
  %15 = call ptr @xstrdup(ptr noundef %14)
  store ptr %15, ptr %1, align 8
  call void @_xstrcat(ptr noundef %1, ptr noundef @.str.1)
  br label %16

16:                                               ; preds = %0
  call void @llvm.lifetime.start.p0(i64 4, ptr %6) #7
  %17 = call i32 @pthread_mutex_lock(ptr noundef @save_cred_state.state_mutex) #7
  store i32 %17, ptr %6, align 4
  %18 = load i32, ptr %6, align 4
  %19 = icmp ne i32 %18, 0
  br i1 %19, label %20, label %23

20:                                               ; preds = %16
  %21 = load i32, ptr %6, align 4
  %22 = call ptr @__errno_location() #8
  store i32 %21, ptr %22, align 4
  call void (ptr, ...) @fatal_abort(ptr noundef @.str.2, ptr noundef @__func__.save_cred_state) #9
  unreachable

23:                                               ; preds = %16
  call void @llvm.lifetime.end.p0(i64 4, ptr %6) #7
  br label %24

24:                                               ; preds = %23
  br label %25

25:                                               ; preds = %24
  %26 = load ptr, ptr %1, align 8
  %27 = call i32 @creat(ptr noundef %26, i32 noundef 384)
  store i32 %27, ptr %3, align 4
  %28 = icmp slt i32 %27, 0
  br i1 %28, label %29, label %37

29:                                               ; preds = %25
  %30 = load ptr, ptr %1, align 8
  %31 = call i32 (ptr, ...) @error(ptr noundef @.str.3, ptr noundef %30)
  %32 = call ptr @__errno_location() #8
  %33 = load i32, ptr %32, align 4
  %34 = icmp eq i32 %33, 28
  br i1 %34, label %35, label %36

35:                                               ; preds = %29
  call void @_drain_node(ptr noundef @.str.4)
  br label %36

36:                                               ; preds = %35, %29
  br label %91

37:                                               ; preds = %25
  %38 = call ptr @init_buf(i32 noundef 1024)
  store ptr %38, ptr %5, align 8
  %39 = load ptr, ptr %5, align 8
  call void @_cred_context_pack(ptr noundef %39)
  %40 = load i32, ptr %3, align 4
  %41 = load ptr, ptr %5, align 8
  %42 = getelementptr inbounds nuw %struct.buf_t, ptr %41, i32 0, i32 1
  %43 = load ptr, ptr %42, align 8
  %44 = load ptr, ptr %5, align 8
  %45 = getelementptr inbounds nuw %struct.buf_t, ptr %44, i32 0, i32 3
  %46 = load i32, ptr %45, align 4
  %47 = zext i32 %46 to i64
  %48 = call i64 @write(i32 noundef %40, ptr noundef %43, i64 noundef %47)
  %49 = trunc i64 %48 to i32
  store i32 %49, ptr %4, align 4
  %50 = load i32, ptr %4, align 4
  %51 = load ptr, ptr %5, align 8
  %52 = getelementptr inbounds nuw %struct.buf_t, ptr %51, i32 0, i32 3
  %53 = load i32, ptr %52, align 4
  %54 = icmp ne i32 %50, %53
  br i1 %54, label %55, label %68

55:                                               ; preds = %37
  %56 = load ptr, ptr %1, align 8
  %57 = call i32 (ptr, ...) @error(ptr noundef @.str.5, ptr noundef %56)
  %58 = load ptr, ptr %1, align 8
  %59 = call i32 @unlink(ptr noundef %58) #7
  %60 = load i32, ptr %4, align 4
  %61 = icmp slt i32 %60, 0
  br i1 %61, label %62, label %67

62:                                               ; preds = %55
  %63 = call ptr @__errno_location() #8
  %64 = load i32, ptr %63, align 4
  %65 = icmp eq i32 %64, 28
  br i1 %65, label %66, label %67

66:                                               ; preds = %62
  call void @_drain_node(ptr noundef @.str.4)
  br label %67

67:                                               ; preds = %66, %62, %55
  br label %91

68:                                               ; preds = %37
  %69 = load ptr, ptr %2, align 8
  %70 = call i32 @unlink(ptr noundef %69) #7
  %71 = load ptr, ptr %1, align 8
  %72 = load ptr, ptr %2, align 8
  %73 = call i32 @link(ptr noundef %71, ptr noundef %72) #7
  %74 = icmp ne i32 %73, 0
  br i1 %74, label %75, label %88

75:                                               ; preds = %68
  br label %76

76:                                               ; preds = %75
  br label %77

77:                                               ; preds = %76
  %78 = call i32 @get_log_level()
  %79 = icmp sge i32 %78, 8
  br i1 %79, label %80, label %83

80:                                               ; preds = %77
  %81 = load ptr, ptr %1, align 8
  %82 = load ptr, ptr %2, align 8
  call void (i32, ptr, ...) @log_var(i32 noundef 8, ptr noundef @.str.6, ptr noundef %81, ptr noundef %82)
  br label %83

83:                                               ; preds = %80, %77
  br label %84

84:                                               ; preds = %83
  br label %85

85:                                               ; preds = %84
  br label %86

86:                                               ; preds = %85
  br label %87

87:                                               ; preds = %86
  br label %88

88:                                               ; preds = %87, %68
  %89 = load ptr, ptr %1, align 8
  %90 = call i32 @unlink(ptr noundef %89) #7
  br label %91

91:                                               ; preds = %88, %67, %36
  br label %92

92:                                               ; preds = %91
  call void @llvm.lifetime.start.p0(i64 4, ptr %7) #7
  %93 = call i32 @pthread_mutex_unlock(ptr noundef @save_cred_state.state_mutex) #7
  store i32 %93, ptr %7, align 4
  %94 = load i32, ptr %7, align 4
  %95 = icmp ne i32 %94, 0
  br i1 %95, label %96, label %99

96:                                               ; preds = %92
  %97 = load i32, ptr %7, align 4
  %98 = call ptr @__errno_location() #8
  store i32 %97, ptr %98, align 4
  call void (ptr, ...) @fatal_abort(ptr noundef @.str.7, ptr noundef @__func__.save_cred_state) #9
  unreachable

99:                                               ; preds = %92
  call void @llvm.lifetime.end.p0(i64 4, ptr %7) #7
  br label %100

100:                                              ; preds = %99
  br label %101

101:                                              ; preds = %100
  call void @slurm_xfree(ptr noundef %2)
  call void @slurm_xfree(ptr noundef %1)
  br label %102

102:                                              ; preds = %101
  %103 = load ptr, ptr %5, align 8
  %104 = icmp ne ptr %103, null
  br i1 %104, label %105, label %107

105:                                              ; preds = %102
  %106 = load ptr, ptr %5, align 8
  call void @free_buf(ptr noundef %106)
  br label %107

107:                                              ; preds = %105, %102
  store ptr null, ptr %5, align 8
  br label %108

108:                                              ; preds = %107
  br label %109

109:                                              ; preds = %108
  %110 = load i32, ptr %3, align 4
  %111 = icmp sge i32 %110, 0
  br i1 %111, label %112, label %115

112:                                              ; preds = %109
  %113 = load i32, ptr %3, align 4
  %114 = call i32 @close(i32 noundef %113)
  br label %115

115:                                              ; preds = %112, %109
  call void @llvm.lifetime.end.p0(i64 8, ptr %5) #7
  call void @llvm.lifetime.end.p0(i64 4, ptr %4) #7
  call void @llvm.lifetime.end.p0(i64 4, ptr %3) #7
  call void @llvm.lifetime.end.p0(i64 8, ptr %2) #7
  call void @llvm.lifetime.end.p0(i64 8, ptr %1) #7
  ret void
}