; Function Attrs: nounwind uwtable
define dso_local void @save_cred_state() local_unnamed_addr #0 {
  %1 = alloca %struct.slurm_update_node_msg, align 8
  %2 = alloca %struct.slurm_update_node_msg, align 8
  %3 = alloca ptr, align 8
  %4 = alloca ptr, align 8
  call void @llvm.lifetime.start.p0(i64 8, ptr nonnull %3) #10
  call void @llvm.lifetime.start.p0(i64 8, ptr nonnull %4) #10
  %5 = load ptr, ptr @conf, align 8
  %6 = getelementptr inbounds nuw i8, ptr %5, i64 4360
  %7 = load ptr, ptr %6, align 8
  %8 = tail call ptr @xstrdup(ptr noundef %7) #10
  store ptr %8, ptr %4, align 8
  call void @_xstrcat(ptr noundef nonnull %4, ptr noundef nonnull @.str) #10
  %9 = load ptr, ptr @conf, align 8
  %10 = getelementptr inbounds nuw i8, ptr %9, i64 4360
  %11 = load ptr, ptr %10, align 8
  %12 = call ptr @xstrdup(ptr noundef %11) #10
  store ptr %12, ptr %3, align 8
  call void @_xstrcat(ptr noundef nonnull %3, ptr noundef nonnull @.str.1) #10
  %13 = call i32 @pthread_mutex_lock(ptr noundef nonnull @save_cred_state.state_mutex) #10
  %.not = icmp eq i32 %13, 0
  br i1 %.not, label %16, label %14

14:                                               ; preds = %0
  %15 = tail call ptr @__errno_location() #11
  store i32 %13, ptr %15, align 4
  call void (ptr, ...) @fatal_abort(ptr noundef nonnull @.str.2, ptr noundef nonnull @__func__.save_cred_state) #12
  unreachable

16:                                               ; preds = %0
  %17 = load ptr, ptr %3, align 8
  %18 = call i32 @creat(ptr noundef %17, i32 noundef 384) #10
  %19 = icmp slt i32 %18, 0
  br i1 %19, label %20, label %34

20:                                               ; preds = %16
  %21 = load ptr, ptr %3, align 8
  %22 = call i32 (ptr, ...) @error(ptr noundef nonnull @.str.3, ptr noundef %21) #10
  %23 = tail call ptr @__errno_location() #11
  %24 = load i32, ptr %23, align 4
  %25 = icmp eq i32 %24, 28
  br i1 %25, label %26, label %88

26:                                               ; preds = %20
  call void @llvm.lifetime.start.p0(i64 128, ptr nonnull %2) #10
  call void @slurm_init_update_node_msg(ptr noundef nonnull %2) #10
  %27 = load ptr, ptr @conf, align 8
  %28 = getelementptr inbounds nuw i8, ptr %27, i64 4272
  %29 = load ptr, ptr %28, align 8
  %30 = getelementptr inbounds nuw i8, ptr %2, i64 88
  store ptr %29, ptr %30, align 8
  %31 = getelementptr inbounds nuw i8, ptr %2, i64 96
  store i32 512, ptr %31, align 8
  %32 = getelementptr inbounds nuw i8, ptr %2, i64 104
  store ptr @.str.4, ptr %32, align 8
  %33 = call i32 @slurm_update_node(ptr noundef nonnull %2) #10
  call void @llvm.lifetime.end.p0(i64 128, ptr nonnull %2) #10
  br label %88

34:                                               ; preds = %16
  %35 = call ptr @init_buf(i32 noundef 1024) #10
  call void @pack16(i16 noundef zeroext 11008, ptr noundef %35) #10
  %36 = call i32 @pthread_mutex_lock(ptr noundef nonnull @cred_cache_mutex) #10
  %.not.i = icmp eq i32 %36, 0
  br i1 %.not.i, label %39, label %37

37:                                               ; preds = %34
  %38 = tail call ptr @__errno_location() #11
  store i32 %36, ptr %38, align 4
  call void (ptr, ...) @fatal_abort(ptr noundef nonnull @.str.2, ptr noundef nonnull @__func__._cred_context_pack) #12
  unreachable

39:                                               ; preds = %34
  %40 = load ptr, ptr @cred_job_list, align 8
  %41 = call i32 @slurm_pack_list(ptr noundef %40, ptr noundef nonnull @_job_state_pack, ptr noundef %35, i16 noundef zeroext 11008) #10
  %42 = load ptr, ptr @cred_state_list, align 8
  %43 = call i32 @slurm_pack_list(ptr noundef %42, ptr noundef nonnull @_cred_state_pack, ptr noundef %35, i16 noundef zeroext 11008) #10
  %44 = call i32 @pthread_mutex_unlock(ptr noundef nonnull @cred_cache_mutex) #10
  %.not10.i = icmp eq i32 %44, 0
  br i1 %.not10.i, label %_cred_context_pack.exit, label %45

45:                                               ; preds = %39
  %46 = tail call ptr @__errno_location() #11
  store i32 %44, ptr %46, align 4
  call void (ptr, ...) @fatal_abort(ptr noundef nonnull @.str.7, ptr noundef nonnull @__func__._cred_context_pack) #12
  unreachable

_cred_context_pack.exit:                          ; preds = %39
  %47 = getelementptr inbounds nuw i8, ptr %35, i64 8
  %48 = load ptr, ptr %47, align 8
  %49 = getelementptr inbounds nuw i8, ptr %35, i64 20
  %50 = load i32, ptr %49, align 4
  %51 = zext i32 %50 to i64
  %52 = call i64 @write(i32 noundef %18, ptr noundef %48, i64 noundef %51) #10
  %53 = trunc i64 %52 to i32
  %54 = load i32, ptr %49, align 4
  %.not18 = icmp eq i32 %54, %53
  br i1 %.not18, label %73, label %55

55:                                               ; preds = %_cred_context_pack.exit
  %56 = load ptr, ptr %3, align 8
  %57 = call i32 (ptr, ...) @error(ptr noundef nonnull @.str.5, ptr noundef %56) #10
  %58 = load ptr, ptr %3, align 8
  %59 = call i32 @unlink(ptr noundef %58) #10
  %60 = icmp slt i32 %53, 0
  br i1 %60, label %61, label %88

61:                                               ; preds = %55
  %62 = tail call ptr @__errno_location() #11
  %63 = load i32, ptr %62, align 4
  %64 = icmp eq i32 %63, 28
  br i1 %64, label %65, label %88

65:                                               ; preds = %61
  call void @llvm.lifetime.start.p0(i64 128, ptr nonnull %1) #10
  call void @slurm_init_update_node_msg(ptr noundef nonnull %1) #10
  %66 = load ptr, ptr @conf, align 8
  %67 = getelementptr inbounds nuw i8, ptr %66, i64 4272
  %68 = load ptr, ptr %67, align 8
  %69 = getelementptr inbounds nuw i8, ptr %1, i64 88
  store ptr %68, ptr %69, align 8
  %70 = getelementptr inbounds nuw i8, ptr %1, i64 96
  store i32 512, ptr %70, align 8
  %71 = getelementptr inbounds nuw i8, ptr %1, i64 104
  store ptr @.str.4, ptr %71, align 8
  %72 = call i32 @slurm_update_node(ptr noundef nonnull %1) #10
  call void @llvm.lifetime.end.p0(i64 128, ptr nonnull %1) #10
  br label %88

73:                                               ; preds = %_cred_context_pack.exit
  %74 = load ptr, ptr %4, align 8
  %75 = call i32 @unlink(ptr noundef %74) #10
  %76 = load ptr, ptr %3, align 8
  %77 = load ptr, ptr %4, align 8
  %78 = call i32 @link(ptr noundef %76, ptr noundef %77) #10
  %.not19 = icmp eq i32 %78, 0
  br i1 %.not19, label %85, label %79

79:                                               ; preds = %73
  %80 = call i32 @get_log_level() #10
  %81 = icmp sgt i32 %80, 7
  br i1 %81, label %82, label %85

82:                                               ; preds = %79
  %83 = load ptr, ptr %3, align 8
  %84 = load ptr, ptr %4, align 8
  call void (i32, ptr, ...) @log_var(i32 noundef 8, ptr noundef nonnull @.str.6, ptr noundef %83, ptr noundef %84) #10
  br label %85

85:                                               ; preds = %79, %82, %73
  %86 = load ptr, ptr %3, align 8
  %87 = call i32 @unlink(ptr noundef %86) #10
  br label %88

88:                                               ; preds = %85, %26, %20, %65, %61, %55
  %.0 = phi ptr [ null, %26 ], [ null, %20 ], [ %35, %65 ], [ %35, %61 ], [ %35, %55 ], [ %35, %85 ]
  %89 = call i32 @pthread_mutex_unlock(ptr noundef nonnull @save_cred_state.state_mutex) #10
  %.not20 = icmp eq i32 %89, 0
  br i1 %.not20, label %92, label %90

90:                                               ; preds = %88
  %91 = tail call ptr @__errno_location() #11
  store i32 %89, ptr %91, align 4
  call void (ptr, ...) @fatal_abort(ptr noundef nonnull @.str.7, ptr noundef nonnull @__func__.save_cred_state) #12
  unreachable

92:                                               ; preds = %88
  call void @slurm_xfree(ptr noundef nonnull %4) #10
  call void @slurm_xfree(ptr noundef nonnull %3) #10
  %.not21 = icmp eq ptr %.0, null
  br i1 %.not21, label %94, label %93

93:                                               ; preds = %92
  call void @free_buf(ptr noundef nonnull %.0) #10
  br label %94

94:                                               ; preds = %93, %92
  %95 = icmp sgt i32 %18, -1
  br i1 %95, label %96, label %98

96:                                               ; preds = %94
  %97 = call i32 @close(i32 noundef %18) #10
  br label %98

98:                                               ; preds = %96, %94
  call void @llvm.lifetime.end.p0(i64 8, ptr nonnull %4) #10
  call void @llvm.lifetime.end.p0(i64 8, ptr nonnull %3) #10
  ret void
}